target datalayout = "e-m:e-p270:32:32-p271:32:32-p272:64:64-i64:64-i128:128-f80:128-n8:16:32:64-S128"
target triple = "x86_64-pc-linux-gnu"

%struct.ssh_bignum = type { ptr, i32 }

@.str.474 = private unnamed_addr constant [29 x i8] c"%s:%u: failed assertion \22%s\22\00", align 1
@.str.475 = private unnamed_addr constant [29 x i8] c"epan/dissectors/packet-ssh.c\00", align 1
@.str.476 = private unnamed_addr constant [18 x i8] c"pub != ((void*)0)\00", align 1
@.str.477 = private unnamed_addr constant [19 x i8] c"priv != ((void*)0)\00", align 1

; Function Attrs: nounwind uwtable
define internal ptr @ssh_kex_make_bignum(ptr noundef %0, i32 noundef %1) #0 {
  %3 = alloca ptr, align 8
  %4 = alloca ptr, align 8
  %5 = alloca i32, align 4
  %6 = alloca ptr, align 8
  store ptr %0, ptr %4, align 8
  store i32 %1, ptr %5, align 4
  %7 = load i32, ptr %5, align 4
  %8 = icmp eq i32 %7, 0
  br i1 %8, label %12, label %9

9:                                                ; preds = %2
  %10 = load i32, ptr %5, align 4
  %11 = icmp ugt i32 %10, 1025
  br i1 %11, label %12, label %13

12:                                               ; preds = %9, %2
  store ptr null, ptr %3, align 8
  br label %36

13:                                               ; preds = %9
  %14 = call ptr @wmem_file_scope()
  %15 = call noalias ptr @wmem_alloc0(ptr noundef %14, i64 noundef 16)
  store ptr %15, ptr %6, align 8
  %16 = call ptr @wmem_file_scope()
  %17 = load i32, ptr %5, align 4
  %18 = zext i32 %17 to i64
  %19 = call noalias ptr @wmem_alloc0(ptr noundef %16, i64 noundef %18)
  %20 = load ptr, ptr %6, align 8
  %21 = getelementptr inbounds %struct.ssh_bignum, ptr %20, i32 0, i32 0
  store ptr %19, ptr %21, align 8
  %22 = load ptr, ptr %4, align 8
  %23 = icmp ne ptr %22, null
  br i1 %23, label %24, label %31

24:                                               ; preds = %13
  %25 = load ptr, ptr %6, align 8
  %26 = getelementptr inbounds %struct.ssh_bignum, ptr %25, i32 0, i32 0
  %27 = load ptr, ptr %26, align 8
  %28 = load ptr, ptr %4, align 8
  %29 = load i32, ptr %5, align 4
  %30 = zext i32 %29 to i64
  call void @llvm.memcpy.p0.p0.i64(ptr align 1 %27, ptr align 1 %28, i64 %30, i1 false)
  br label %31

31:                                               ; preds = %24, %13
  %32 = load i32, ptr %5, align 4
  %33 = load ptr, ptr %6, align 8
  %34 = getelementptr inbounds %struct.ssh_bignum, ptr %33, i32 0, i32 1
  store i32 %32, ptr %34, align 8
  %35 = load ptr, ptr %6, align 8
  store ptr %35, ptr %3, align 8
  br label %36

36:                                               ; preds = %31, %12
  %37 = load ptr, ptr %3, align 8
  ret ptr %37
}

; Function Attrs: nounwind uwtable
define internal ptr @ssh_kex_shared_secret(i32 noundef %0, ptr noundef %1, ptr noundef %2, ptr noundef %3) #0 {
  %5 = alloca ptr, align 8
  %6 = alloca i32, align 4
  %7 = alloca ptr, align 8
  %8 = alloca ptr, align 8
  %9 = alloca ptr, align 8
  %10 = alloca ptr, align 8
  %11 = alloca ptr, align 8
  %12 = alloca ptr, align 8
  %13 = alloca ptr, align 8
  %14 = alloca ptr, align 8
  %15 = alloca i64, align 8
  %16 = alloca ptr, align 8
  %17 = alloca ptr, align 8
  %18 = alloca ptr, align 8
  %19 = alloca ptr, align 8
  %20 = alloca i64, align 8
  store i32 %0, ptr %6, align 4
  store ptr %1, ptr %7, align 8
  store ptr %2, ptr %8, align 8
  store ptr %3, ptr %9, align 8
  %21 = load ptr, ptr %7, align 8
  %22 = icmp ne ptr %21, null
  br i1 %22, label %23, label %24

23:                                               ; preds = %4
  br label %26

24:                                               ; preds = %4
  call void (ptr, ...) @proto_report_dissector_bug(ptr noundef @.str.474, ptr noundef @.str.475, i32 noundef 2447, ptr noundef @.str.476) #16
  unreachable

25:                                               ; No predecessors!
  br label %26

26:                                               ; preds = %25, %23
  %27 = load ptr, ptr %8, align 8
  %28 = icmp ne ptr %27, null
  br i1 %28, label %29, label %30

29:                                               ; preds = %26
  br label %32

30:                                               ; preds = %26
  call void (ptr, ...) @proto_report_dissector_bug(ptr noundef @.str.474, ptr noundef @.str.475, i32 noundef 2448, ptr noundef @.str.477) #16
  unreachable

31:                                               ; No predecessors!
  br label %32

32:                                               ; preds = %31, %29
  %33 = load ptr, ptr %7, align 8
  %34 = getelementptr inbounds %struct.ssh_bignum, ptr %33, i32 0, i32 1
  %35 = load i32, ptr %34, align 8
  %36 = call ptr @ssh_kex_make_bignum(ptr noundef null, i32 noundef %35)
  store ptr %36, ptr %10, align 8
  %37 = load ptr, ptr %10, align 8
  %38 = icmp ne ptr %37, null
  br i1 %38, label %42, label %39

39:                                               ; preds = %32
  br label %40

40:                                               ; preds = %39
  br label %41

41:                                               ; preds = %40
  store ptr null, ptr %5, align 8
  br label %200

42:                                               ; preds = %32
  %43 = load i32, ptr %6, align 4
  %44 = icmp eq i32 %43, 131072
  br i1 %44, label %45, label %96

45:                                               ; preds = %42
  store ptr null, ptr %11, align 8
  %46 = load ptr, ptr %7, align 8
  %47 = getelementptr inbounds %struct.ssh_bignum, ptr %46, i32 0, i32 0
  %48 = load ptr, ptr %47, align 8
  %49 = load ptr, ptr %7, align 8
  %50 = getelementptr inbounds %struct.ssh_bignum, ptr %49, i32 0, i32 1
  %51 = load i32, ptr %50, align 8
  %52 = zext i32 %51 to i64
  %53 = call i32 @gcry_mpi_scan(ptr noundef %11, i32 noundef 5, ptr noundef %48, i64 noundef %52, ptr noundef null)
  store ptr null, ptr %12, align 8
  store ptr null, ptr %13, align 8
  store ptr null, ptr %14, align 8
  store i64 0, ptr %15, align 8
  %54 = load ptr, ptr %7, align 8
  %55 = getelementptr inbounds %struct.ssh_bignum, ptr %54, i32 0, i32 1
  %56 = load i32, ptr %55, align 8
  %57 = mul i32 %56, 8
  %58 = call ptr @gcry_mpi_new(i32 noundef %57)
  store ptr %58, ptr %12, align 8
  %59 = load ptr, ptr %8, align 8
  %60 = getelementptr inbounds %struct.ssh_bignum, ptr %59, i32 0, i32 0
  %61 = load ptr, ptr %60, align 8
  %62 = load ptr, ptr %8, align 8
  %63 = getelementptr inbounds %struct.ssh_bignum, ptr %62, i32 0, i32 1
  %64 = load i32, ptr %63, align 8
  %65 = zext i32 %64 to i64
  %66 = call i32 @gcry_mpi_scan(ptr noundef %13, i32 noundef 5, ptr noundef %61, i64 noundef %65, ptr noundef null)
  %67 = load ptr, ptr %9, align 8
  %68 = getelementptr inbounds %struct.ssh_bignum, ptr %67, i32 0, i32 0
  %69 = load ptr, ptr %68, align 8
  %70 = load ptr, ptr %9, align 8
  %71 = getelementptr inbounds %struct.ssh_bignum, ptr %70, i32 0, i32 1
  %72 = load i32, ptr %71, align 8
  %73 = zext i32 %72 to i64
  %74 = call i32 @gcry_mpi_scan(ptr noundef %14, i32 noundef 5, ptr noundef %69, i64 noundef %73, ptr noundef null)
  %75 = load ptr, ptr %12, align 8
  %76 = load ptr, ptr %11, align 8
  %77 = load ptr, ptr %13, align 8
  %78 = load ptr, ptr %14, align 8
  call void @gcry_mpi_powm(ptr noundef %75, ptr noundef %76, ptr noundef %77, ptr noundef %78)
  %79 = load ptr, ptr %10, align 8
  %80 = getelementptr inbounds %struct.ssh_bignum, ptr %79, i32 0, i32 0
  %81 = load ptr, ptr %80, align 8
  %82 = load ptr, ptr %10, align 8
  %83 = getelementptr inbounds %struct.ssh_bignum, ptr %82, i32 0, i32 1
  %84 = load i32, ptr %83, align 8
  %85 = zext i32 %84 to i64
  %86 = load ptr, ptr %12, align 8
  %87 = call i32 @gcry_mpi_print(i32 noundef 5, ptr noundef %81, i64 noundef %85, ptr noundef %15, ptr noundef %86)
  %88 = load i64, ptr %15, align 8
  %89 = trunc i64 %88 to i32
  %90 = load ptr, ptr %10, align 8
  %91 = getelementptr inbounds %struct.ssh_bignum, ptr %90, i32 0, i32 1
  store i32 %89, ptr %91, align 8
  %92 = load ptr, ptr %12, align 8
  call void @gcry_mpi_release(ptr noundef %92)
  %93 = load ptr, ptr %11, align 8
  call void @gcry_mpi_release(ptr noundef %93)
  %94 = load ptr, ptr %13, align 8
  call void @gcry_mpi_release(ptr noundef %94)
  %95 = load ptr, ptr %14, align 8
  call void @gcry_mpi_release(ptr noundef %95)
  br label %198

96:                                               ; preds = %42
  %97 = load i32, ptr %6, align 4
  %98 = icmp eq i32 %97, 196609
  br i1 %98, label %108, label %99

99:                                               ; preds = %96
  %100 = load i32, ptr %6, align 4
  %101 = icmp eq i32 %100, 196628
  br i1 %101, label %108, label %102

102:                                              ; preds = %99
  %103 = load i32, ptr %6, align 4
  %104 = icmp eq i32 %103, 196630
  br i1 %104, label %108, label %105

105:                                              ; preds = %102
  %106 = load i32, ptr %6, align 4
  %107 = icmp eq i32 %106, 196632
  br i1 %107, label %108, label %174

108:                                              ; preds = %105, %102, %99, %96
  store ptr null, ptr %16, align 8
  %109 = load i32, ptr %6, align 4
  %110 = icmp eq i32 %109, 196609
  br i1 %110, label %111, label %113

111:                                              ; preds = %108
  %112 = call i32 @gcry_mpi_scan(ptr noundef %16, i32 noundef 5, ptr noundef @ssh_kex_shared_secret.p, i64 noundef 128, ptr noundef null)
  br label %131

113:                                              ; preds = %108
  %114 = load i32, ptr %6, align 4
  %115 = icmp eq i32 %114, 196628
  br i1 %115, label %116, label %118

116:                                              ; preds = %113
  %117 = call i32 @gcry_mpi_scan(ptr noundef %16, i32 noundef 5, ptr noundef @ssh_kex_shared_secret.p.478, i64 noundef 256, ptr noundef null)
  br label %130

118:                                              ; preds = %113
  %119 = load i32, ptr %6, align 4
  %120 = icmp eq i32 %119, 196630
  br i1 %120, label %121, label %123

121:                                              ; preds = %118
  %122 = call i32 @gcry_mpi_scan(ptr noundef %16, i32 noundef 5, ptr noundef @ssh_kex_shared_secret.p.479, i64 noundef 512, ptr noundef null)
  br label %129

123:                                              ; preds = %118
  %124 = load i32, ptr %6, align 4
  %125 = icmp eq i32 %124, 196632
  br i1 %125, label %126, label %128

126:                                              ; preds = %123
  %127 = call i32 @gcry_mpi_scan(ptr noundef %16, i32 noundef 5, ptr noundef @ssh_kex_shared_secret.p.480, i64 noundef 1024, ptr noundef null)
  br label %128

128:                                              ; preds = %126, %123
  br label %129

129:                                              ; preds = %128, %121
  br label %130

130:                                              ; preds = %129, %116
  br label %131

131:                                              ; preds = %130, %111
  store ptr null, ptr %17, align 8
  %132 = load ptr, ptr %7, align 8
  %133 = getelementptr inbounds %struct.ssh_bignum, ptr %132, i32 0, i32 0
  %134 = load ptr, ptr %133, align 8
  %135 = load ptr, ptr %7, align 8
  %136 = getelementptr inbounds %struct.ssh_bignum, ptr %135, i32 0, i32 1
  %137 = load i32, ptr %136, align 8
  %138 = zext i32 %137 to i64
  %139 = call i32 @gcry_mpi_scan(ptr noundef %17, i32 noundef 5, ptr noundef %134, i64 noundef %138, ptr noundef null)
  store ptr null, ptr %18, align 8
  store ptr null, ptr %19, align 8
  store i64 0, ptr %20, align 8
  %140 = load ptr, ptr %7, align 8
  %141 = getelementptr inbounds %struct.ssh_bignum, ptr %140, i32 0, i32 1
  %142 = load i32, ptr %141, align 8
  %143 = mul i32 %142, 8
  %144 = call ptr @gcry_mpi_new(i32 noundef %143)
  store ptr %144, ptr %18, align 8
  %145 = load ptr, ptr %8, align 8
  %146 = getelementptr inbounds %struct.ssh_bignum, ptr %145, i32 0, i32 0
  %147 = load ptr, ptr %146, align 8
  %148 = load ptr, ptr %8, align 8
  %149 = getelementptr inbounds %struct.ssh_bignum, ptr %148, i32 0, i32 1
  %150 = load i32, ptr %149, align 8
  %151 = zext i32 %150 to i64
  %152 = call i32 @gcry_mpi_scan(ptr noundef %19, i32 noundef 5, ptr noundef %147, i64 noundef %151, ptr noundef null)
  %153 = load ptr, ptr %18, align 8
  %154 = load ptr, ptr %17, align 8
  %155 = load ptr, ptr %19, align 8
  %156 = load ptr, ptr %16, align 8
  call void @gcry_mpi_powm(ptr noundef %153, ptr noundef %154, ptr noundef %155, ptr noundef %156)
  %157 = load ptr, ptr %10, align 8
  %158 = getelementptr inbounds %struct.ssh_bignum, ptr %157, i32 0, i32 0
  %159 = load ptr, ptr %158, align 8
  %160 = load ptr, ptr %10, align 8
  %161 = getelementptr inbounds %struct.ssh_bignum, ptr %160, i32 0, i32 1
  %162 = load i32, ptr %161, align 8
  %163 = zext i32 %162 to i64
  %164 = load ptr, ptr %18, align 8
  %165 = call i32 @gcry_mpi_print(i32 noundef 5, ptr noundef %159, i64 noundef %163, ptr noundef %20, ptr noundef %164)
  %166 = load i64, ptr %20, align 8
  %167 = trunc i64 %166 to i32
  %168 = load ptr, ptr %10, align 8
  %169 = getelementptr inbounds %struct.ssh_bignum, ptr %168, i32 0, i32 1
  store i32 %167, ptr %169, align 8
  %170 = load ptr, ptr %18, align 8
  call void @gcry_mpi_release(ptr noundef %170)
  %171 = load ptr, ptr %17, align 8
  call void @gcry_mpi_release(ptr noundef %171)
  %172 = load ptr, ptr %19, align 8
  call void @gcry_mpi_release(ptr noundef %172)
  %173 = load ptr, ptr %16, align 8
  call void @gcry_mpi_release(ptr noundef %173)
  br label %197

174:                                              ; preds = %105
  %175 = load i32, ptr %6, align 4
  %176 = icmp eq i32 %175, 65536
  br i1 %176, label %177, label %193

177:                                              ; preds = %174
  %178 = load ptr, ptr %10, align 8
  %179 = getelementptr inbounds %struct.ssh_bignum, ptr %178, i32 0, i32 0
  %180 = load ptr, ptr %179, align 8
  %181 = load ptr, ptr %8, align 8
  %182 = getelementptr inbounds %struct.ssh_bignum, ptr %181, i32 0, i32 0
  %183 = load ptr, ptr %182, align 8
  %184 = load ptr, ptr %7, align 8
  %185 = getelementptr inbounds %struct.ssh_bignum, ptr %184, i32 0, i32 0
  %186 = load ptr, ptr %185, align 8
  %187 = call i32 @crypto_scalarmult_curve25519(ptr noundef %180, ptr noundef %183, ptr noundef %186)
  %188 = icmp ne i32 %187, 0
  br i1 %188, label %189, label %192

189:                                              ; preds = %177
  br label %190

190:                                              ; preds = %189
  br label %191

191:                                              ; preds = %190
  store ptr null, ptr %5, align 8
  br label %200

192:                                              ; preds = %177
  br label %196

193:                                              ; preds = %174
  br label %194

194:                                              ; preds = %193
  br label %195

195:                                              ; preds = %194
  store ptr null, ptr %5, align 8
  br label %200

196:                                              ; preds = %192
  br label %197

197:                                              ; preds = %196, %131
  br label %198

198:                                              ; preds = %197, %45
  %199 = load ptr, ptr %10, align 8
  store ptr %199, ptr %5, align 8
  br label %200

200:                                              ; preds = %198, %195, %191, %41
  %201 = load ptr, ptr %5, align 8
  ret ptr %201
}