; Function Attrs: nounwind uwtable
define internal fastcc noalias ptr @ssh_kex_shared_secret(i32 noundef range(i32 0, 196633) %0, ptr noundef readonly %1, ptr noundef readonly %2, ptr noundef readonly captures(none) %3) unnamed_addr #0 {
  %5 = alloca ptr, align 8
  %6 = alloca ptr, align 8
  %7 = alloca ptr, align 8
  %8 = alloca i64, align 8
  %9 = alloca ptr, align 8
  %10 = alloca ptr, align 8
  %11 = alloca ptr, align 8
  %12 = alloca i64, align 8
  %.not = icmp eq ptr %1, null
  br i1 %.not, label %13, label %14

13:                                               ; preds = %4
  tail call void (ptr, ...) @proto_report_dissector_bug(ptr noundef nonnull @.str.474, ptr noundef nonnull @.str.475, i32 noundef 2447, ptr noundef nonnull @.str.476) #26
  unreachable

14:                                               ; preds = %4
  %.not51 = icmp eq ptr %2, null
  br i1 %.not51, label %15, label %16

15:                                               ; preds = %14
  tail call void (ptr, ...) @proto_report_dissector_bug(ptr noundef nonnull @.str.474, ptr noundef nonnull @.str.475, i32 noundef 2448, ptr noundef nonnull @.str.477) #26
  unreachable

16:                                               ; preds = %14
  %17 = getelementptr inbounds nuw i8, ptr %1, i64 8
  %18 = load i32, ptr %17, align 8
  %19 = add i32 %18, -1026
  %or.cond.i = icmp ult i32 %19, -1025
  br i1 %or.cond.i, label %ssh_kex_make_bignum.exit.thread, label %20

20:                                               ; preds = %16
  %21 = tail call ptr @wmem_file_scope() #21
  %22 = tail call noalias ptr @wmem_alloc0(ptr noundef %21, i64 noundef 16) #21
  %23 = tail call ptr @wmem_file_scope() #21
  %24 = zext nneg i32 %18 to i64
  %25 = tail call noalias ptr @wmem_alloc0(ptr noundef %23, i64 noundef %24) #21
  store ptr %25, ptr %22, align 8
  %26 = getelementptr inbounds nuw i8, ptr %22, i64 8
  store i32 %18, ptr %26, align 8
  switch i32 %0, label %ssh_kex_make_bignum.exit.thread [
    i32 131072, label %27
    i32 196632, label %49
    i32 196630, label %49
    i32 196628, label %49
    i32 196609, label %49
    i32 65536, label %75
  ]

27:                                               ; preds = %20
  store ptr null, ptr %5, align 8
  %28 = load ptr, ptr %1, align 8
  %29 = load i32, ptr %17, align 8
  %30 = zext i32 %29 to i64
  %31 = call i32 @gcry_mpi_scan(ptr noundef nonnull %5, i32 noundef 5, ptr noundef %28, i64 noundef %30, ptr noundef null) #21
  store ptr null, ptr %6, align 8
  store ptr null, ptr %7, align 8
  store i64 0, ptr %8, align 8
  %32 = load i32, ptr %17, align 8
  %33 = shl i32 %32, 3
  %34 = call ptr @gcry_mpi_new(i32 noundef %33) #21
  %35 = load ptr, ptr %2, align 8
  %36 = getelementptr inbounds nuw i8, ptr %2, i64 8
  %37 = load i32, ptr %36, align 8
  %38 = zext i32 %37 to i64
  %39 = call i32 @gcry_mpi_scan(ptr noundef nonnull %6, i32 noundef 5, ptr noundef %35, i64 noundef %38, ptr noundef null) #21
  %40 = load ptr, ptr %3, align 8
  %41 = getelementptr inbounds nuw i8, ptr %3, i64 8
  %42 = load i32, ptr %41, align 8
  %43 = zext i32 %42 to i64
  %44 = call i32 @gcry_mpi_scan(ptr noundef nonnull %7, i32 noundef 5, ptr noundef %40, i64 noundef %43, ptr noundef null) #21
  %45 = load ptr, ptr %5, align 8
  %46 = load ptr, ptr %6, align 8
  %47 = load ptr, ptr %7, align 8
  call void @gcry_mpi_powm(ptr noundef %34, ptr noundef %45, ptr noundef %46, ptr noundef %47) #21
  %48 = call i32 @gcry_mpi_print(i32 noundef 5, ptr noundef %25, i64 noundef %24, ptr noundef nonnull %8, ptr noundef %34) #21
  br label %.sink.split

49:                                               ; preds = %20, %20, %20, %20
  store ptr null, ptr %9, align 8
  switch i32 %0, label %58 [
    i32 196609, label %50
    i32 196628, label %52
    i32 196630, label %54
    i32 196632, label %56
  ]

50:                                               ; preds = %49
  %51 = call i32 @gcry_mpi_scan(ptr noundef nonnull %9, i32 noundef 5, ptr noundef nonnull @ssh_kex_shared_secret.p, i64 noundef 128, ptr noundef null) #21
  br label %58

52:                                               ; preds = %49
  %53 = call i32 @gcry_mpi_scan(ptr noundef nonnull %9, i32 noundef 5, ptr noundef nonnull @ssh_kex_shared_secret.p.478, i64 noundef 256, ptr noundef null) #21
  br label %58

54:                                               ; preds = %49
  %55 = call i32 @gcry_mpi_scan(ptr noundef nonnull %9, i32 noundef 5, ptr noundef nonnull @ssh_kex_shared_secret.p.479, i64 noundef 512, ptr noundef null) #21
  br label %58

56:                                               ; preds = %49
  %57 = call i32 @gcry_mpi_scan(ptr noundef nonnull %9, i32 noundef 5, ptr noundef nonnull @ssh_kex_shared_secret.p.480, i64 noundef 1024, ptr noundef null) #21
  br label %58

58:                                               ; preds = %49, %52, %56, %54, %50
  store ptr null, ptr %10, align 8
  %59 = load ptr, ptr %1, align 8
  %60 = load i32, ptr %17, align 8
  %61 = zext i32 %60 to i64
  %62 = call i32 @gcry_mpi_scan(ptr noundef nonnull %10, i32 noundef 5, ptr noundef %59, i64 noundef %61, ptr noundef null) #21
  store ptr null, ptr %11, align 8
  store i64 0, ptr %12, align 8
  %63 = load i32, ptr %17, align 8
  %64 = shl i32 %63, 3
  %65 = call ptr @gcry_mpi_new(i32 noundef %64) #21
  %66 = load ptr, ptr %2, align 8
  %67 = getelementptr inbounds nuw i8, ptr %2, i64 8
  %68 = load i32, ptr %67, align 8
  %69 = zext i32 %68 to i64
  %70 = call i32 @gcry_mpi_scan(ptr noundef nonnull %11, i32 noundef 5, ptr noundef %66, i64 noundef %69, ptr noundef null) #21
  %71 = load ptr, ptr %10, align 8
  %72 = load ptr, ptr %11, align 8
  %73 = load ptr, ptr %9, align 8
  call void @gcry_mpi_powm(ptr noundef %65, ptr noundef %71, ptr noundef %72, ptr noundef %73) #21
  %74 = call i32 @gcry_mpi_print(i32 noundef 5, ptr noundef %25, i64 noundef %24, ptr noundef nonnull %12, ptr noundef %65) #21
  br label %.sink.split

75:                                               ; preds = %20
  %76 = load ptr, ptr %2, align 8
  %77 = load ptr, ptr %1, align 8
  %78 = tail call i32 @crypto_scalarmult_curve25519(ptr noundef %25, ptr noundef %76, ptr noundef %77) #21
  %.not53 = icmp eq i32 %78, 0
  br i1 %.not53, label %84, label %ssh_kex_make_bignum.exit.thread

.sink.split:                                      ; preds = %27, %58
  %.sink61 = phi ptr [ %12, %58 ], [ %8, %27 ]
  %.sink = phi ptr [ %65, %58 ], [ %34, %27 ]
  %.sink58 = phi ptr [ %10, %58 ], [ %5, %27 ]
  %.sink57 = phi ptr [ %11, %58 ], [ %6, %27 ]
  %.sink56 = phi ptr [ %9, %58 ], [ %7, %27 ]
  %79 = load i64, ptr %.sink61, align 8
  %80 = trunc i64 %79 to i32
  store i32 %80, ptr %26, align 8
  call void @gcry_mpi_release(ptr noundef %.sink) #21
  %81 = load ptr, ptr %.sink58, align 8
  call void @gcry_mpi_release(ptr noundef %81) #21
  %82 = load ptr, ptr %.sink57, align 8
  call void @gcry_mpi_release(ptr noundef %82) #21
  %83 = load ptr, ptr %.sink56, align 8
  call void @gcry_mpi_release(ptr noundef %83) #21
  br label %84

84:                                               ; preds = %.sink.split, %75
  br label %ssh_kex_make_bignum.exit.thread

ssh_kex_make_bignum.exit.thread:                  ; preds = %20, %16, %75, %84
  %.0 = phi ptr [ %22, %84 ], [ null, %75 ], [ null, %16 ], [ null, %20 ]
  ret ptr %.0
}